target datalayout = "e-m:e-p270:32:32-p271:32:32-p272:64:64-i64:64-i128:128-f80:128-n8:16:32:64-S128"
target triple = "x86_64-unknown-linux-gnu"

%struct.timeval = type { i64, i64 }

@.str.7 = private unnamed_addr constant [27 x i8] c"setsockopt SO_RCVTIMEO: %s\00", align 1

; Function Attrs: nounwind uwtable
define dso_local i32 @anetRecvTimeout(ptr noundef %err, i32 noundef %fd, i64 noundef %ms) #0 {
entry:
  %retval = alloca i32, align 4
  %err.addr = alloca ptr, align 8
  %fd.addr = alloca i32, align 4
  %ms.addr = alloca i64, align 8
  %tv = alloca %struct.timeval, align 8
  store ptr %err, ptr %err.addr, align 8
  store i32 %fd, ptr %fd.addr, align 4
  store i64 %ms, ptr %ms.addr, align 8
  %0 = load i64, ptr %ms.addr, align 8
  %div = sdiv i64 %0, 1000
  %tv_sec = getelementptr inbounds %struct.timeval, ptr %tv, i32 0, i32 0
  store i64 %div, ptr %tv_sec, align 8
  %1 = load i64, ptr %ms.addr, align 8
  %rem = srem i64 %1, 1000
  %mul = mul nsw i64 %rem, 1000
  %tv_usec = getelementptr inbounds %struct.timeval, ptr %tv, i32 0, i32 1
  store i64 %mul, ptr %tv_usec, align 8
  %2 = load i32, ptr %fd.addr, align 4
  %call = call i32 @setsockopt(i32 noundef %2, i32 noundef 1, i32 noundef 20, ptr noundef %tv, i32 noundef 16) #7
  %cmp = icmp eq i32 %call, -1
  br i1 %cmp, label %if.then, label %if.end

if.then:                                          ; preds = %entry
  %3 = load ptr, ptr %err.addr, align 8
  %call1 = call ptr @__errno_location() #8
  %4 = load i32, ptr %call1, align 4
  %call2 = call ptr @strerror(i32 noundef %4) #7
  call void (ptr, ptr, ...) @anetSetError(ptr noundef %3, ptr noundef @.str.7, ptr noundef %call2)
  store i32 -1, ptr %retval, align 4
  br label %return

if.end:                                           ; preds = %entry
  store i32 0, ptr %retval, align 4
  br label %return

return:                                           ; preds = %if.end, %if.then
  %5 = load i32, ptr %retval, align 4
  ret i32 %5
}