; Function Attrs: nounwind uwtable
define dso_local noundef i32 @anetRecvTimeout(ptr noundef %err, i32 noundef %fd, i64 noundef %ms) local_unnamed_addr #0 {
entry:
  %tv = alloca %struct.timeval, align 8
  %div = sdiv i64 %ms, 1000
  store i64 %div, ptr %tv, align 8
  %rem = srem i64 %ms, 1000
  %mul = mul nsw i64 %rem, 1000
  %tv_usec = getelementptr inbounds i8, ptr %tv, i64 8
  store i64 %mul, ptr %tv_usec, align 8
  %call = call i32 @setsockopt(i32 noundef %fd, i32 noundef 1, i32 noundef 20, ptr noundef nonnull %tv, i32 noundef 16) #10
  %cmp = icmp eq i32 %call, -1
  br i1 %cmp, label %if.then, label %return

if.then:                                          ; preds = %entry
  %call1 = tail call ptr @__errno_location() #11
  %0 = load i32, ptr %call1, align 4
  %call2 = call ptr @strerror(i32 noundef %0) #10
  call void (ptr, ptr, ...) @anetSetError(ptr noundef %err, ptr noundef nonnull @.str.7, ptr noundef %call2)
  br label %return

return:                                           ; preds = %entry, %if.then
  %retval.0 = phi i32 [ -1, %if.then ], [ 0, %entry ]
  ret i32 %retval.0
}